; Function Attrs: mustprogress uwtable
define noundef ptr @_ZN6icu_7510DateFormat25createInstanceForSkeletonERKNS_13UnicodeStringERKNS_6LocaleER10UErrorCode(ptr noundef nonnull align 8 dereferenceable(64) %skeleton, ptr noundef nonnull align 8 dereferenceable(217) %locale, ptr noundef nonnull align 4 dereferenceable(4) %status) local_unnamed_addr #3 align 2 personality ptr @__gxx_personality_v0 {
entry:
  %ref.tmp = alloca %"class.icu_75::UnicodeString", align 8
  %0 = load i32, ptr %status, align 4
  %cmp.i = icmp slt i32 %0, 1
  br i1 %cmp.i, label %if.end, label %return

if.end:                                           ; preds = %entry
  %call1 = tail call noundef ptr @_ZN6icu_757UMemorynwEm(i64 noundef 832) #13
  %new.isnull.not = icmp eq ptr %call1, null
  br i1 %new.isnull.not, label %new.cont, label %new.notnull

new.notnull:                                      ; preds = %if.end
  invoke void @_ZN6icu_7510DateFormat14getBestPatternERKNS_6LocaleERKNS_13UnicodeStringER10UErrorCode(ptr nonnull sret(%"class.icu_75::UnicodeString") align 8 %ref.tmp, ptr noundef nonnull align 8 dereferenceable(217) %locale, ptr noundef nonnull align 8 dereferenceable(64) %skeleton, ptr noundef nonnull align 4 dereferenceable(4) %status)
          to label %invoke.cont unwind label %lpad

invoke.cont:                                      ; preds = %new.notnull
  invoke void @_ZN6icu_7516SimpleDateFormatC1ERKNS_13UnicodeStringERKNS_6LocaleER10UErrorCode(ptr noundef nonnull align 8 dereferenceable(832) %call1, ptr noundef nonnull align 8 dereferenceable(64) %ref.tmp, ptr noundef nonnull align 8 dereferenceable(217) %locale, ptr noundef nonnull align 4 dereferenceable(4) %status)
          to label %cleanup.done unwind label %cleanup.action7

new.cont:                                         ; preds = %if.end
  %1 = load i32, ptr %status, align 4
  %cmp.i.i = icmp sgt i32 %1, 0
  br i1 %cmp.i.i, label %return, label %if.then.i

if.then.i:                                        ; preds = %new.cont
  store i32 7, ptr %status, align 4
  br label %return

cleanup.done:                                     ; preds = %invoke.cont
  call void @_ZN6icu_7513UnicodeStringD1Ev(ptr noundef nonnull align 8 dereferenceable(64) %ref.tmp) #13
  %.pre = load i32, ptr %status, align 4
  %2 = icmp sgt i32 %.pre, 0
  br i1 %2, label %delete.notnull.i, label %return

delete.notnull.i:                                 ; preds = %cleanup.done
  %vtable.i = load ptr, ptr %call1, align 8
  %vfn.i = getelementptr inbounds i8, ptr %vtable.i, i64 8
  %3 = load ptr, ptr %vfn.i, align 8
  call void %3(ptr noundef nonnull align 8 dereferenceable(352) %call1) #13
  br label %return

lpad:                                             ; preds = %new.notnull
  %4 = landingpad { ptr, i32 }
          cleanup
  br label %eh.resume

cleanup.action7:                                  ; preds = %invoke.cont
  %5 = landingpad { ptr, i32 }
          cleanup
  call void @_ZN6icu_7513UnicodeStringD1Ev(ptr noundef nonnull align 8 dereferenceable(64) %ref.tmp) #13
  br label %eh.resume

return:                                           ; preds = %if.then.i, %new.cont, %cleanup.done, %delete.notnull.i, %entry
  %retval.0 = phi ptr [ null, %entry ], [ null, %delete.notnull.i ], [ %call1, %cleanup.done ], [ null, %new.cont ], [ null, %if.then.i ]
  ret ptr %retval.0

eh.resume:                                        ; preds = %cleanup.action7, %lpad
  %.pn = phi { ptr, i32 } [ %5, %cleanup.action7 ], [ %4, %lpad ]
  call void @_ZN6icu_757UMemorydlEPv(ptr noundef nonnull %call1) #13
  resume { ptr, i32 } %.pn
}